target datalayout = "e-m:e-p270:32:32-p271:32:32-p272:64:64-i64:64-i128:128-f80:128-n8:16:32:64-S128"
target triple = "x86_64-pc-linux-gnu"

%struct.GLNVGshader = type { i32, i32, i32, [3 x i32] }

@.str.19 = private unnamed_addr constant [1 x i8] zeroinitializer, align 1
@.str.20 = private unnamed_addr constant [5 x i8] c"vert\00", align 1
@.str.21 = private unnamed_addr constant [5 x i8] c"frag\00", align 1
@.str.22 = private unnamed_addr constant [7 x i8] c"vertex\00", align 1
@.str.23 = private unnamed_addr constant [7 x i8] c"tcoord\00", align 1
@.str.24 = private unnamed_addr constant [24 x i8] c"Shader %s/%s error:\0A%s\0A\00", align 1
@.str.25 = private unnamed_addr constant [22 x i8] c"Program %s error:\0A%s\0A\00", align 1

; Function Attrs: mustprogress uwtable
define internal void @_ZL23glnvg__dumpProgramErrorjPKc(i32 noundef %0, ptr noundef %1) #4 {
  %3 = alloca i32, align 4
  %4 = alloca ptr, align 8
  %5 = alloca [513 x i8], align 16
  %6 = alloca i32, align 4
  store i32 %0, ptr %3, align 4
  store ptr %1, ptr %4, align 8
  store i32 0, ptr %6, align 4
  %7 = load i32, ptr %3, align 4
  %8 = getelementptr inbounds [513 x i8], ptr %5, i64 0, i64 0
  call void @glGetProgramInfoLog(i32 noundef %7, i32 noundef 512, ptr noundef %6, ptr noundef %8)
  %9 = load i32, ptr %6, align 4
  %10 = icmp sgt i32 %9, 512
  br i1 %10, label %11, label %12

11:                                               ; preds = %2
  store i32 512, ptr %6, align 4
  br label %12

12:                                               ; preds = %11, %2
  %13 = load i32, ptr %6, align 4
  %14 = sext i32 %13 to i64
  %15 = getelementptr inbounds [513 x i8], ptr %5, i64 0, i64 %14
  store i8 0, ptr %15, align 1
  %16 = load ptr, ptr %4, align 8
  %17 = getelementptr inbounds [513 x i8], ptr %5, i64 0, i64 0
  %18 = call i32 (ptr, ...) @printf(ptr noundef @.str.25, ptr noundef %16, ptr noundef %17)
  ret void
}

; Function Attrs: mustprogress uwtable
define internal void @_ZL22glnvg__dumpShaderErrorjPKcS0_(i32 noundef %0, ptr noundef %1, ptr noundef %2) #4 {
  %4 = alloca i32, align 4
  %5 = alloca ptr, align 8
  %6 = alloca ptr, align 8
  %7 = alloca [513 x i8], align 16
  %8 = alloca i32, align 4
  store i32 %0, ptr %4, align 4
  store ptr %1, ptr %5, align 8
  store ptr %2, ptr %6, align 8
  store i32 0, ptr %8, align 4
  %9 = load i32, ptr %4, align 4
  %10 = getelementptr inbounds [513 x i8], ptr %7, i64 0, i64 0
  call void @glGetShaderInfoLog(i32 noundef %9, i32 noundef 512, ptr noundef %8, ptr noundef %10)
  %11 = load i32, ptr %8, align 4
  %12 = icmp sgt i32 %11, 512
  br i1 %12, label %13, label %14

13:                                               ; preds = %3
  store i32 512, ptr %8, align 4
  br label %14

14:                                               ; preds = %13, %3
  %15 = load i32, ptr %8, align 4
  %16 = sext i32 %15 to i64
  %17 = getelementptr inbounds [513 x i8], ptr %7, i64 0, i64 %16
  store i8 0, ptr %17, align 1
  %18 = load ptr, ptr %5, align 8
  %19 = load ptr, ptr %6, align 8
  %20 = getelementptr inbounds [513 x i8], ptr %7, i64 0, i64 0
  %21 = call i32 (ptr, ...) @printf(ptr noundef @.str.24, ptr noundef %18, ptr noundef %19, ptr noundef %20)
  ret void
}

; Function Attrs: mustprogress uwtable
define internal noundef i32 @_ZL19glnvg__createShaderP11GLNVGshaderPKcS2_S2_S2_S2_(ptr noundef %0, ptr noundef %1, ptr noundef %2, ptr noundef %3, ptr noundef %4, ptr noundef %5) #4 {
  %7 = alloca i32, align 4
  %8 = alloca ptr, align 8
  %9 = alloca ptr, align 8
  %10 = alloca ptr, align 8
  %11 = alloca ptr, align 8
  %12 = alloca ptr, align 8
  %13 = alloca ptr, align 8
  %14 = alloca i32, align 4
  %15 = alloca i32, align 4
  %16 = alloca i32, align 4
  %17 = alloca i32, align 4
  %18 = alloca [3 x ptr], align 16
  store ptr %0, ptr %8, align 8
  store ptr %1, ptr %9, align 8
  store ptr %2, ptr %10, align 8
  store ptr %3, ptr %11, align 8
  store ptr %4, ptr %12, align 8
  store ptr %5, ptr %13, align 8
  %19 = load ptr, ptr %10, align 8
  %20 = getelementptr inbounds [3 x ptr], ptr %18, i64 0, i64 0
  store ptr %19, ptr %20, align 16
  %21 = load ptr, ptr %11, align 8
  %22 = icmp ne ptr %21, null
  br i1 %22, label %23, label %25

23:                                               ; preds = %6
  %24 = load ptr, ptr %11, align 8
  br label %26

25:                                               ; preds = %6
  br label %26

26:                                               ; preds = %25, %23
  %27 = phi ptr [ %24, %23 ], [ @.str.19, %25 ]
  %28 = getelementptr inbounds [3 x ptr], ptr %18, i64 0, i64 1
  store ptr %27, ptr %28, align 8
  %29 = load ptr, ptr %8, align 8
  call void @llvm.memset.p0.i64(ptr align 4 %29, i8 0, i64 24, i1 false)
  %30 = call i32 @glCreateProgram()
  store i32 %30, ptr %15, align 4
  %31 = call i32 @glCreateShader(i32 noundef 35633)
  store i32 %31, ptr %16, align 4
  %32 = call i32 @glCreateShader(i32 noundef 35632)
  store i32 %32, ptr %17, align 4
  %33 = load ptr, ptr %12, align 8
  %34 = getelementptr inbounds [3 x ptr], ptr %18, i64 0, i64 2
  store ptr %33, ptr %34, align 16
  %35 = load i32, ptr %16, align 4
  %36 = getelementptr inbounds [3 x ptr], ptr %18, i64 0, i64 0
  call void @glShaderSource(i32 noundef %35, i32 noundef 3, ptr noundef %36, ptr noundef null)
  %37 = load ptr, ptr %13, align 8
  %38 = getelementptr inbounds [3 x ptr], ptr %18, i64 0, i64 2
  store ptr %37, ptr %38, align 16
  %39 = load i32, ptr %17, align 4
  %40 = getelementptr inbounds [3 x ptr], ptr %18, i64 0, i64 0
  call void @glShaderSource(i32 noundef %39, i32 noundef 3, ptr noundef %40, ptr noundef null)
  %41 = load i32, ptr %16, align 4
  call void @glCompileShader(i32 noundef %41)
  %42 = load i32, ptr %16, align 4
  call void @glGetShaderiv(i32 noundef %42, i32 noundef 35713, ptr noundef %14)
  %43 = load i32, ptr %14, align 4
  %44 = icmp ne i32 %43, 1
  br i1 %44, label %45, label %48

45:                                               ; preds = %26
  %46 = load i32, ptr %16, align 4
  %47 = load ptr, ptr %9, align 8
  call void @_ZL22glnvg__dumpShaderErrorjPKcS0_(i32 noundef %46, ptr noundef %47, ptr noundef @.str.20)
  store i32 0, ptr %7, align 4
  br label %80

48:                                               ; preds = %26
  %49 = load i32, ptr %17, align 4
  call void @glCompileShader(i32 noundef %49)
  %50 = load i32, ptr %17, align 4
  call void @glGetShaderiv(i32 noundef %50, i32 noundef 35713, ptr noundef %14)
  %51 = load i32, ptr %14, align 4
  %52 = icmp ne i32 %51, 1
  br i1 %52, label %53, label %56

53:                                               ; preds = %48
  %54 = load i32, ptr %17, align 4
  %55 = load ptr, ptr %9, align 8
  call void @_ZL22glnvg__dumpShaderErrorjPKcS0_(i32 noundef %54, ptr noundef %55, ptr noundef @.str.21)
  store i32 0, ptr %7, align 4
  br label %80

56:                                               ; preds = %48
  %57 = load i32, ptr %15, align 4
  %58 = load i32, ptr %16, align 4
  call void @glAttachShader(i32 noundef %57, i32 noundef %58)
  %59 = load i32, ptr %15, align 4
  %60 = load i32, ptr %17, align 4
  call void @glAttachShader(i32 noundef %59, i32 noundef %60)
  %61 = load i32, ptr %15, align 4
  call void @glBindAttribLocation(i32 noundef %61, i32 noundef 0, ptr noundef @.str.22)
  %62 = load i32, ptr %15, align 4
  call void @glBindAttribLocation(i32 noundef %62, i32 noundef 1, ptr noundef @.str.23)
  %63 = load i32, ptr %15, align 4
  call void @glLinkProgram(i32 noundef %63)
  %64 = load i32, ptr %15, align 4
  call void @glGetProgramiv(i32 noundef %64, i32 noundef 35714, ptr noundef %14)
  %65 = load i32, ptr %14, align 4
  %66 = icmp ne i32 %65, 1
  br i1 %66, label %67, label %70

67:                                               ; preds = %56
  %68 = load i32, ptr %15, align 4
  %69 = load ptr, ptr %9, align 8
  call void @_ZL23glnvg__dumpProgramErrorjPKc(i32 noundef %68, ptr noundef %69)
  store i32 0, ptr %7, align 4
  br label %80

70:                                               ; preds = %56
  %71 = load i32, ptr %15, align 4
  %72 = load ptr, ptr %8, align 8
  %73 = getelementptr inbounds %struct.GLNVGshader, ptr %72, i32 0, i32 0
  store i32 %71, ptr %73, align 4
  %74 = load i32, ptr %16, align 4
  %75 = load ptr, ptr %8, align 8
  %76 = getelementptr inbounds %struct.GLNVGshader, ptr %75, i32 0, i32 2
  store i32 %74, ptr %76, align 4
  %77 = load i32, ptr %17, align 4
  %78 = load ptr, ptr %8, align 8
  %79 = getelementptr inbounds %struct.GLNVGshader, ptr %78, i32 0, i32 1
  store i32 %77, ptr %79, align 4
  store i32 1, ptr %7, align 4
  br label %80

80:                                               ; preds = %70, %67, %53, %45
  %81 = load i32, ptr %7, align 4
  ret i32 %81
}