; Function Attrs: mustprogress uwtable
define internal fastcc noundef i32 @_ZL19glnvg__createShaderP11GLNVGshaderPKcS2_S2_S2_S2_(ptr nocapture noundef writeonly %0, ptr noundef %1) unnamed_addr #3 {
  %3 = alloca [513 x i8], align 16
  %4 = alloca i32, align 4
  %5 = alloca [513 x i8], align 16
  %6 = alloca i32, align 4
  %7 = alloca [513 x i8], align 16
  %8 = alloca i32, align 4
  %9 = alloca i32, align 4
  %10 = alloca [3 x ptr], align 16
  store ptr @.str.10, ptr %10, align 16
  %.not = icmp eq ptr %1, null
  %11 = select i1 %.not, ptr @.str.19, ptr %1
  %12 = getelementptr inbounds i8, ptr %10, i64 8
  store ptr %11, ptr %12, align 8
  tail call void @llvm.memset.p0.i64(ptr noundef nonnull align 4 dereferenceable(24) %0, i8 0, i64 24, i1 false)
  %13 = tail call i32 @glCreateProgram()
  %14 = tail call i32 @glCreateShader(i32 noundef 35633)
  %15 = tail call i32 @glCreateShader(i32 noundef 35632)
  %16 = getelementptr inbounds i8, ptr %10, i64 16
  store ptr @.str.11, ptr %16, align 16
  call void @glShaderSource(i32 noundef %14, i32 noundef 3, ptr noundef nonnull %10, ptr noundef null)
  store ptr @.str.12, ptr %16, align 16
  call void @glShaderSource(i32 noundef %15, i32 noundef 3, ptr noundef nonnull %10, ptr noundef null)
  call void @glCompileShader(i32 noundef %14)
  call void @glGetShaderiv(i32 noundef %14, i32 noundef 35713, ptr noundef nonnull %9)
  %17 = load i32, ptr %9, align 4
  %.not32 = icmp eq i32 %17, 1
  br i1 %.not32, label %26, label %18

18:                                               ; preds = %2
  call void @llvm.lifetime.start.p0(i64 513, ptr nonnull %7)
  call void @llvm.lifetime.start.p0(i64 4, ptr nonnull %8)
  store i32 0, ptr %8, align 4
  call void @glGetShaderInfoLog(i32 noundef %14, i32 noundef 512, ptr noundef nonnull %8, ptr noundef nonnull %7)
  %19 = load i32, ptr %8, align 4
  %20 = icmp sgt i32 %19, 512
  br i1 %20, label %21, label %_ZL22glnvg__dumpShaderErrorjPKcS0_.exit

21:                                               ; preds = %18
  store i32 512, ptr %8, align 4
  br label %_ZL22glnvg__dumpShaderErrorjPKcS0_.exit

_ZL22glnvg__dumpShaderErrorjPKcS0_.exit:          ; preds = %18, %21
  %22 = phi i32 [ 512, %21 ], [ %19, %18 ]
  %23 = sext i32 %22 to i64
  %24 = getelementptr inbounds [513 x i8], ptr %7, i64 0, i64 %23
  store i8 0, ptr %24, align 1
  %25 = call i32 (ptr, ...) @printf(ptr noundef nonnull dereferenceable(1) @.str.24, ptr noundef nonnull @.str.14, ptr noundef nonnull @.str.20, ptr noundef nonnull %7)
  call void @llvm.lifetime.end.p0(i64 513, ptr nonnull %7)
  call void @llvm.lifetime.end.p0(i64 4, ptr nonnull %8)
  br label %49

26:                                               ; preds = %2
  call void @glCompileShader(i32 noundef %15)
  call void @glGetShaderiv(i32 noundef %15, i32 noundef 35713, ptr noundef nonnull %9)
  %27 = load i32, ptr %9, align 4
  %.not33 = icmp eq i32 %27, 1
  br i1 %.not33, label %36, label %28

28:                                               ; preds = %26
  call void @llvm.lifetime.start.p0(i64 513, ptr nonnull %5)
  call void @llvm.lifetime.start.p0(i64 4, ptr nonnull %6)
  store i32 0, ptr %6, align 4
  call void @glGetShaderInfoLog(i32 noundef %15, i32 noundef 512, ptr noundef nonnull %6, ptr noundef nonnull %5)
  %29 = load i32, ptr %6, align 4
  %30 = icmp sgt i32 %29, 512
  br i1 %30, label %31, label %_ZL22glnvg__dumpShaderErrorjPKcS0_.exit35

31:                                               ; preds = %28
  store i32 512, ptr %6, align 4
  br label %_ZL22glnvg__dumpShaderErrorjPKcS0_.exit35

_ZL22glnvg__dumpShaderErrorjPKcS0_.exit35:        ; preds = %28, %31
  %32 = phi i32 [ 512, %31 ], [ %29, %28 ]
  %33 = sext i32 %32 to i64
  %34 = getelementptr inbounds [513 x i8], ptr %5, i64 0, i64 %33
  store i8 0, ptr %34, align 1
  %35 = call i32 (ptr, ...) @printf(ptr noundef nonnull dereferenceable(1) @.str.24, ptr noundef nonnull @.str.14, ptr noundef nonnull @.str.21, ptr noundef nonnull %5)
  call void @llvm.lifetime.end.p0(i64 513, ptr nonnull %5)
  call void @llvm.lifetime.end.p0(i64 4, ptr nonnull %6)
  br label %49

36:                                               ; preds = %26
  call void @glAttachShader(i32 noundef %13, i32 noundef %14)
  call void @glAttachShader(i32 noundef %13, i32 noundef %15)
  call void @glBindAttribLocation(i32 noundef %13, i32 noundef 0, ptr noundef nonnull @.str.22)
  call void @glBindAttribLocation(i32 noundef %13, i32 noundef 1, ptr noundef nonnull @.str.23)
  call void @glLinkProgram(i32 noundef %13)
  call void @glGetProgramiv(i32 noundef %13, i32 noundef 35714, ptr noundef nonnull %9)
  %37 = load i32, ptr %9, align 4
  %.not34 = icmp eq i32 %37, 1
  br i1 %.not34, label %46, label %38

38:                                               ; preds = %36
  call void @llvm.lifetime.start.p0(i64 513, ptr nonnull %3)
  call void @llvm.lifetime.start.p0(i64 4, ptr nonnull %4)
  store i32 0, ptr %4, align 4
  call void @glGetProgramInfoLog(i32 noundef %13, i32 noundef 512, ptr noundef nonnull %4, ptr noundef nonnull %3)
  %39 = load i32, ptr %4, align 4
  %40 = icmp sgt i32 %39, 512
  br i1 %40, label %41, label %_ZL23glnvg__dumpProgramErrorjPKc.exit

41:                                               ; preds = %38
  store i32 512, ptr %4, align 4
  br label %_ZL23glnvg__dumpProgramErrorjPKc.exit

_ZL23glnvg__dumpProgramErrorjPKc.exit:            ; preds = %38, %41
  %42 = phi i32 [ 512, %41 ], [ %39, %38 ]
  %43 = sext i32 %42 to i64
  %44 = getelementptr inbounds [513 x i8], ptr %3, i64 0, i64 %43
  store i8 0, ptr %44, align 1
  %45 = call i32 (ptr, ...) @printf(ptr noundef nonnull dereferenceable(1) @.str.25, ptr noundef nonnull @.str.14, ptr noundef nonnull %3)
  call void @llvm.lifetime.end.p0(i64 513, ptr nonnull %3)
  call void @llvm.lifetime.end.p0(i64 4, ptr nonnull %4)
  br label %49

46:                                               ; preds = %36
  store i32 %13, ptr %0, align 4
  %47 = getelementptr inbounds i8, ptr %0, i64 8
  store i32 %14, ptr %47, align 4
  %48 = getelementptr inbounds i8, ptr %0, i64 4
  store i32 %15, ptr %48, align 4
  br label %49

49:                                               ; preds = %46, %_ZL23glnvg__dumpProgramErrorjPKc.exit, %_ZL22glnvg__dumpShaderErrorjPKcS0_.exit35, %_ZL22glnvg__dumpShaderErrorjPKcS0_.exit
  %.0 = phi i32 [ 0, %_ZL22glnvg__dumpShaderErrorjPKcS0_.exit ], [ 0, %_ZL22glnvg__dumpShaderErrorjPKcS0_.exit35 ], [ 0, %_ZL23glnvg__dumpProgramErrorjPKc.exit ], [ 1, %46 ]
  ret i32 %.0
}